; Function Attrs: nounwind uwtable
define range(i64 -60, 1) i64 @ZSTD_CCtx_refPrefix(ptr noundef captures(none) %0, ptr noundef %1, i64 noundef %2) local_unnamed_addr #2 {
  %4 = getelementptr inbounds nuw i8, ptr %0, i64 3640
  %5 = load i32, ptr %4, align 8, !tbaa !81
  %.not.i = icmp eq i32 %5, 0
  br i1 %.not.i, label %6, label %ZSTD_CCtx_refPrefix_advanced.exit

6:                                                ; preds = %3
  tail call fastcc void @ZSTD_clearAllDicts(ptr noundef nonnull %0)
  %7 = icmp ne ptr %1, null
  %8 = icmp ne i64 %2, 0
  %or.cond.i = and i1 %7, %8
  br i1 %or.cond.i, label %9, label %ZSTD_CCtx_refPrefix_advanced.exit

9:                                                ; preds = %6
  %10 = getelementptr inbounds nuw i8, ptr %0, i64 3736
  store ptr %1, ptr %10, align 8, !tbaa !125
  %11 = getelementptr inbounds nuw i8, ptr %0, i64 3744
  store i64 %2, ptr %11, align 8, !tbaa !126
  %12 = getelementptr inbounds nuw i8, ptr %0, i64 3752
  store i32 1, ptr %12, align 8, !tbaa !127
  br label %ZSTD_CCtx_refPrefix_advanced.exit

ZSTD_CCtx_refPrefix_advanced.exit:                ; preds = %3, %6, %9
  %.0.i = phi i64 [ -60, %3 ], [ 0, %9 ], [ 0, %6 ]
  ret i64 %.0.i
}